target datalayout = "e-m:e-p270:32:32-p271:32:32-p272:64:64-i64:64-i128:128-f80:128-n8:16:32:64-S128"
target triple = "x86_64-pc-linux-gnu"

%"class.std::__cxx11::basic_string" = type { %"struct.std::__cxx11::basic_string<char>::_Alloc_hider", i64, %union.anon }
%"struct.std::__cxx11::basic_string<char>::_Alloc_hider" = type { ptr }
%union.anon = type { i64, [8 x i8] }
%"class.absl::debian2::AlphaNum" = type { %"class.absl::debian2::string_view", [32 x i8] }
%"class.absl::debian2::string_view" = type { ptr, i64 }
%"class.std::initializer_list.6" = type { ptr, i64 }

; Function Attrs: mustprogress nounwind uwtable
define linkonce_odr dso_local { ptr, i64 } @_ZNK4absl7debian28AlphaNum5PieceEv(ptr noundef nonnull align 8 dereferenceable(48) %0) #1 comdat align 2 {
  %2 = alloca %"class.absl::debian2::string_view", align 8
  %3 = alloca ptr, align 8
  store ptr %0, ptr %3, align 8, !tbaa !11
  %4 = load ptr, ptr %3, align 8
  %5 = getelementptr inbounds nuw %"class.absl::debian2::AlphaNum", ptr %4, i32 0, i32 0
  call void @llvm.memcpy.p0.p0.i64(ptr align 8 %2, ptr align 8 %5, i64 16, i1 false), !tbaa.struct !24
  %6 = load { ptr, i64 }, ptr %2, align 8
  ret { ptr, i64 } %6
}

; Function Attrs: inlinehint mustprogress uwtable
define linkonce_odr dso_local void @_ZN4absl7debian26StrCatIJN4i18n12phonenumbers12StringHolderES4_EEENSt7__cxx1112basic_stringIcSt11char_traitsIcESaIcEEERKNS0_8AlphaNumESD_SD_SD_SD_DpRKT_(ptr dead_on_unwind noalias writable sret(%"class.std::__cxx11::basic_string") align 8 %0, ptr noundef nonnull align 8 dereferenceable(48) %1, ptr noundef nonnull align 8 dereferenceable(48) %2, ptr noundef nonnull align 8 dereferenceable(48) %3, ptr noundef nonnull align 8 dereferenceable(48) %4, ptr noundef nonnull align 8 dereferenceable(48) %5, ptr noundef nonnull align 8 dereferenceable(48) %6, ptr noundef nonnull align 8 dereferenceable(48) %7) #4 comdat {
  %9 = alloca ptr, align 8
  %10 = alloca ptr, align 8
  %11 = alloca ptr, align 8
  %12 = alloca ptr, align 8
  %13 = alloca ptr, align 8
  %14 = alloca ptr, align 8
  %15 = alloca ptr, align 8
  %16 = alloca ptr, align 8
  %17 = alloca %"class.std::initializer_list.6", align 8
  %18 = alloca [7 x %"class.absl::debian2::string_view"], align 8
  store ptr %0, ptr %9, align 8
  store ptr %1, ptr %10, align 8, !tbaa !11
  store ptr %2, ptr %11, align 8, !tbaa !11
  store ptr %3, ptr %12, align 8, !tbaa !11
  store ptr %4, ptr %13, align 8, !tbaa !11
  store ptr %5, ptr %14, align 8, !tbaa !11
  store ptr %6, ptr %15, align 8, !tbaa !70
  store ptr %7, ptr %16, align 8, !tbaa !70
  call void @llvm.lifetime.start.p0(i64 112, ptr %18) #16
  %19 = load ptr, ptr %10, align 8, !tbaa !11
  %20 = call { ptr, i64 } @_ZNK4absl7debian28AlphaNum5PieceEv(ptr noundef nonnull align 8 dereferenceable(48) %19)
  %21 = getelementptr inbounds nuw { ptr, i64 }, ptr %18, i32 0, i32 0
  %22 = extractvalue { ptr, i64 } %20, 0
  store ptr %22, ptr %21, align 8
  %23 = getelementptr inbounds nuw { ptr, i64 }, ptr %18, i32 0, i32 1
  %24 = extractvalue { ptr, i64 } %20, 1
  store i64 %24, ptr %23, align 8
  %25 = getelementptr inbounds %"class.absl::debian2::string_view", ptr %18, i64 1
  %26 = load ptr, ptr %11, align 8, !tbaa !11
  %27 = call { ptr, i64 } @_ZNK4absl7debian28AlphaNum5PieceEv(ptr noundef nonnull align 8 dereferenceable(48) %26)
  %28 = getelementptr inbounds nuw { ptr, i64 }, ptr %25, i32 0, i32 0
  %29 = extractvalue { ptr, i64 } %27, 0
  store ptr %29, ptr %28, align 8
  %30 = getelementptr inbounds nuw { ptr, i64 }, ptr %25, i32 0, i32 1
  %31 = extractvalue { ptr, i64 } %27, 1
  store i64 %31, ptr %30, align 8
  %32 = getelementptr inbounds %"class.absl::debian2::string_view", ptr %18, i64 2
  %33 = load ptr, ptr %12, align 8, !tbaa !11
  %34 = call { ptr, i64 } @_ZNK4absl7debian28AlphaNum5PieceEv(ptr noundef nonnull align 8 dereferenceable(48) %33)
  %35 = getelementptr inbounds nuw { ptr, i64 }, ptr %32, i32 0, i32 0
  %36 = extractvalue { ptr, i64 } %34, 0
  store ptr %36, ptr %35, align 8
  %37 = getelementptr inbounds nuw { ptr, i64 }, ptr %32, i32 0, i32 1
  %38 = extractvalue { ptr, i64 } %34, 1
  store i64 %38, ptr %37, align 8
  %39 = getelementptr inbounds %"class.absl::debian2::string_view", ptr %18, i64 3
  %40 = load ptr, ptr %13, align 8, !tbaa !11
  %41 = call { ptr, i64 } @_ZNK4absl7debian28AlphaNum5PieceEv(ptr noundef nonnull align 8 dereferenceable(48) %40)
  %42 = getelementptr inbounds nuw { ptr, i64 }, ptr %39, i32 0, i32 0
  %43 = extractvalue { ptr, i64 } %41, 0
  store ptr %43, ptr %42, align 8
  %44 = getelementptr inbounds nuw { ptr, i64 }, ptr %39, i32 0, i32 1
  %45 = extractvalue { ptr, i64 } %41, 1
  store i64 %45, ptr %44, align 8
  %46 = getelementptr inbounds %"class.absl::debian2::string_view", ptr %18, i64 4
  %47 = load ptr, ptr %14, align 8, !tbaa !11
  %48 = call { ptr, i64 } @_ZNK4absl7debian28AlphaNum5PieceEv(ptr noundef nonnull align 8 dereferenceable(48) %47)
  %49 = getelementptr inbounds nuw { ptr, i64 }, ptr %46, i32 0, i32 0
  %50 = extractvalue { ptr, i64 } %48, 0
  store ptr %50, ptr %49, align 8
  %51 = getelementptr inbounds nuw { ptr, i64 }, ptr %46, i32 0, i32 1
  %52 = extractvalue { ptr, i64 } %48, 1
  store i64 %52, ptr %51, align 8
  %53 = getelementptr inbounds %"class.absl::debian2::string_view", ptr %18, i64 5
  %54 = load ptr, ptr %15, align 8, !tbaa !70
  %55 = call { ptr, i64 } @_ZNK4absl7debian28AlphaNum5PieceEv(ptr noundef nonnull align 8 dereferenceable(48) %54)
  %56 = getelementptr inbounds nuw { ptr, i64 }, ptr %53, i32 0, i32 0
  %57 = extractvalue { ptr, i64 } %55, 0
  store ptr %57, ptr %56, align 8
  %58 = getelementptr inbounds nuw { ptr, i64 }, ptr %53, i32 0, i32 1
  %59 = extractvalue { ptr, i64 } %55, 1
  store i64 %59, ptr %58, align 8
  %60 = getelementptr inbounds %"class.absl::debian2::string_view", ptr %18, i64 6
  %61 = load ptr, ptr %16, align 8, !tbaa !70
  %62 = call { ptr, i64 } @_ZNK4absl7debian28AlphaNum5PieceEv(ptr noundef nonnull align 8 dereferenceable(48) %61)
  %63 = getelementptr inbounds nuw { ptr, i64 }, ptr %60, i32 0, i32 0
  %64 = extractvalue { ptr, i64 } %62, 0
  store ptr %64, ptr %63, align 8
  %65 = getelementptr inbounds nuw { ptr, i64 }, ptr %60, i32 0, i32 1
  %66 = extractvalue { ptr, i64 } %62, 1
  store i64 %66, ptr %65, align 8
  %67 = getelementptr inbounds nuw %"class.std::initializer_list.6", ptr %17, i32 0, i32 0
  store ptr %18, ptr %67, align 8, !tbaa !74
  %68 = getelementptr inbounds nuw %"class.std::initializer_list.6", ptr %17, i32 0, i32 1
  store i64 7, ptr %68, align 8, !tbaa !76
  %69 = getelementptr inbounds nuw { ptr, i64 }, ptr %17, i32 0, i32 0
  %70 = load ptr, ptr %69, align 8
  %71 = getelementptr inbounds nuw { ptr, i64 }, ptr %17, i32 0, i32 1
  %72 = load i64, ptr %71, align 8
  call void @_ZN4absl7debian216strings_internal9CatPiecesB5cxx11ESt16initializer_listINS0_11string_viewEE(ptr dead_on_unwind writable sret(%"class.std::__cxx11::basic_string") align 8 %0, ptr %70, i64 %72)
  call void @llvm.lifetime.end.p0(i64 112, ptr %18) #16
  ret void
}

; Function Attrs: mustprogress uwtable
define dso_local void @_ZN4i18n12phonenumbers6StrCatB5cxx11ERKNS0_12StringHolderES3_S3_S3_S3_S3_S3_(ptr dead_on_unwind noalias writable sret(%"class.std::__cxx11::basic_string") align 8 %0, ptr noundef nonnull align 8 dereferenceable(48) %1, ptr noundef nonnull align 8 dereferenceable(48) %2, ptr noundef nonnull align 8 dereferenceable(48) %3, ptr noundef nonnull align 8 dereferenceable(48) %4, ptr noundef nonnull align 8 dereferenceable(48) %5, ptr noundef nonnull align 8 dereferenceable(48) %6, ptr noundef nonnull align 8 dereferenceable(48) %7) #0 {
  %9 = alloca ptr, align 8
  %10 = alloca ptr, align 8
  %11 = alloca ptr, align 8
  %12 = alloca ptr, align 8
  %13 = alloca ptr, align 8
  %14 = alloca ptr, align 8
  %15 = alloca ptr, align 8
  %16 = alloca ptr, align 8
  store ptr %0, ptr %9, align 8
  store ptr %1, ptr %10, align 8, !tbaa !70
  store ptr %2, ptr %11, align 8, !tbaa !70
  store ptr %3, ptr %12, align 8, !tbaa !70
  store ptr %4, ptr %13, align 8, !tbaa !70
  store ptr %5, ptr %14, align 8, !tbaa !70
  store ptr %6, ptr %15, align 8, !tbaa !70
  store ptr %7, ptr %16, align 8, !tbaa !70
  %17 = load ptr, ptr %10, align 8, !tbaa !70
  %18 = load ptr, ptr %11, align 8, !tbaa !70
  %19 = load ptr, ptr %12, align 8, !tbaa !70
  %20 = load ptr, ptr %13, align 8, !tbaa !70
  %21 = load ptr, ptr %14, align 8, !tbaa !70
  %22 = load ptr, ptr %15, align 8, !tbaa !70
  %23 = load ptr, ptr %16, align 8, !tbaa !70
  call void @_ZN4absl7debian26StrCatIJN4i18n12phonenumbers12StringHolderES4_EEENSt7__cxx1112basic_stringIcSt11char_traitsIcESaIcEEERKNS0_8AlphaNumESD_SD_SD_SD_DpRKT_(ptr dead_on_unwind writable sret(%"class.std::__cxx11::basic_string") align 8 %0, ptr noundef nonnull align 8 dereferenceable(48) %17, ptr noundef nonnull align 8 dereferenceable(48) %18, ptr noundef nonnull align 8 dereferenceable(48) %19, ptr noundef nonnull align 8 dereferenceable(48) %20, ptr noundef nonnull align 8 dereferenceable(48) %21, ptr noundef nonnull align 8 dereferenceable(48) %22, ptr noundef nonnull align 8 dereferenceable(48) %23)
  ret void
}