; Function Attrs: mustprogress uwtable
define dso_local void @_ZN4i18n12phonenumbers6StrCatB5cxx11ERKNS0_12StringHolderES3_S3_S3_S3_S3_S3_(ptr dead_on_unwind noalias writable sret(%"class.std::__cxx11::basic_string") align 8 %0, ptr noundef nonnull readonly align 8 captures(none) dereferenceable(48) %1, ptr noundef nonnull readonly align 8 captures(none) dereferenceable(48) %2, ptr noundef nonnull readonly align 8 captures(none) dereferenceable(48) %3, ptr noundef nonnull readonly align 8 captures(none) dereferenceable(48) %4, ptr noundef nonnull readonly align 8 captures(none) dereferenceable(48) %5, ptr noundef nonnull readonly align 8 captures(none) dereferenceable(48) %6, ptr noundef nonnull readonly align 8 captures(none) dereferenceable(48) %7) local_unnamed_addr #0 {
  %9 = alloca [7 x %"class.absl::debian2::string_view"], align 8
  call void @llvm.lifetime.start.p0(i64 112, ptr nonnull %9) #19, !noalias !70
  %.sroa.0.0.copyload.i.i = load ptr, ptr %1, align 8, !tbaa !31, !noalias !70
  %.sroa.2.0..sroa_idx.i.i = getelementptr inbounds nuw i8, ptr %1, i64 8
  %.sroa.2.0.copyload.i.i = load i64, ptr %.sroa.2.0..sroa_idx.i.i, align 8, !tbaa !22, !noalias !70
  store ptr %.sroa.0.0.copyload.i.i, ptr %9, align 8, !noalias !70
  %10 = getelementptr inbounds nuw i8, ptr %9, i64 8
  store i64 %.sroa.2.0.copyload.i.i, ptr %10, align 8, !noalias !70
  %11 = getelementptr inbounds nuw i8, ptr %9, i64 16
  %.sroa.0.0.copyload.i7.i = load ptr, ptr %2, align 8, !tbaa !31, !noalias !70
  %.sroa.2.0..sroa_idx.i8.i = getelementptr inbounds nuw i8, ptr %2, i64 8
  %.sroa.2.0.copyload.i9.i = load i64, ptr %.sroa.2.0..sroa_idx.i8.i, align 8, !tbaa !22, !noalias !70
  store ptr %.sroa.0.0.copyload.i7.i, ptr %11, align 8, !noalias !70
  %12 = getelementptr inbounds nuw i8, ptr %9, i64 24
  store i64 %.sroa.2.0.copyload.i9.i, ptr %12, align 8, !noalias !70
  %13 = getelementptr inbounds nuw i8, ptr %9, i64 32
  %.sroa.0.0.copyload.i12.i = load ptr, ptr %3, align 8, !tbaa !31, !noalias !70
  %.sroa.2.0..sroa_idx.i13.i = getelementptr inbounds nuw i8, ptr %3, i64 8
  %.sroa.2.0.copyload.i14.i = load i64, ptr %.sroa.2.0..sroa_idx.i13.i, align 8, !tbaa !22, !noalias !70
  store ptr %.sroa.0.0.copyload.i12.i, ptr %13, align 8, !noalias !70
  %14 = getelementptr inbounds nuw i8, ptr %9, i64 40
  store i64 %.sroa.2.0.copyload.i14.i, ptr %14, align 8, !noalias !70
  %15 = getelementptr inbounds nuw i8, ptr %9, i64 48
  %.sroa.0.0.copyload.i17.i = load ptr, ptr %4, align 8, !tbaa !31, !noalias !70
  %.sroa.2.0..sroa_idx.i18.i = getelementptr inbounds nuw i8, ptr %4, i64 8
  %.sroa.2.0.copyload.i19.i = load i64, ptr %.sroa.2.0..sroa_idx.i18.i, align 8, !tbaa !22, !noalias !70
  store ptr %.sroa.0.0.copyload.i17.i, ptr %15, align 8, !noalias !70
  %16 = getelementptr inbounds nuw i8, ptr %9, i64 56
  store i64 %.sroa.2.0.copyload.i19.i, ptr %16, align 8, !noalias !70
  %17 = getelementptr inbounds nuw i8, ptr %9, i64 64
  %.sroa.0.0.copyload.i22.i = load ptr, ptr %5, align 8, !tbaa !31, !noalias !70
  %.sroa.2.0..sroa_idx.i23.i = getelementptr inbounds nuw i8, ptr %5, i64 8
  %.sroa.2.0.copyload.i24.i = load i64, ptr %.sroa.2.0..sroa_idx.i23.i, align 8, !tbaa !22, !noalias !70
  store ptr %.sroa.0.0.copyload.i22.i, ptr %17, align 8, !noalias !70
  %18 = getelementptr inbounds nuw i8, ptr %9, i64 72
  store i64 %.sroa.2.0.copyload.i24.i, ptr %18, align 8, !noalias !70
  %19 = getelementptr inbounds nuw i8, ptr %9, i64 80
  %.sroa.0.0.copyload.i27.i = load ptr, ptr %6, align 8, !tbaa !31, !noalias !70
  %.sroa.2.0..sroa_idx.i28.i = getelementptr inbounds nuw i8, ptr %6, i64 8
  %.sroa.2.0.copyload.i29.i = load i64, ptr %.sroa.2.0..sroa_idx.i28.i, align 8, !tbaa !22, !noalias !70
  store ptr %.sroa.0.0.copyload.i27.i, ptr %19, align 8, !noalias !70
  %20 = getelementptr inbounds nuw i8, ptr %9, i64 88
  store i64 %.sroa.2.0.copyload.i29.i, ptr %20, align 8, !noalias !70
  %21 = getelementptr inbounds nuw i8, ptr %9, i64 96
  %.sroa.0.0.copyload.i32.i = load ptr, ptr %7, align 8, !tbaa !31, !noalias !70
  %.sroa.2.0..sroa_idx.i33.i = getelementptr inbounds nuw i8, ptr %7, i64 8
  %.sroa.2.0.copyload.i34.i = load i64, ptr %.sroa.2.0..sroa_idx.i33.i, align 8, !tbaa !22, !noalias !70
  store ptr %.sroa.0.0.copyload.i32.i, ptr %21, align 8, !noalias !70
  %22 = getelementptr inbounds nuw i8, ptr %9, i64 104
  store i64 %.sroa.2.0.copyload.i34.i, ptr %22, align 8, !noalias !70
  call void @_ZN4absl7debian216strings_internal9CatPiecesB5cxx11ESt16initializer_listINS0_11string_viewEE(ptr dead_on_unwind writable sret(%"class.std::__cxx11::basic_string") align 8 %0, ptr nonnull %9, i64 7)
  call void @llvm.lifetime.end.p0(i64 112, ptr nonnull %9) #19, !noalias !70
  ret void
}